Certificate Request:
    Data:
        Version: 1 (0x0)
        Subject: C = BR, ST = Maringa, L = CasaDoMatias, O = Matias, OU = M, CN = Alexandre, emailAddress = matias.herrero@alunos.utfpr.edu.br
        Subject Public Key Info:
            Public Key Algorithm: rsaEncryption
                RSA Public-Key: (2048 bit)
                Modulus:
                    00:ab:6b:c1:e6:cf:3a:09:42:81:7b:a6:7a:3e:68:
                    3b:6e:48:b7:36:05:9b:b5:d6:bd:ae:3c:3f:ae:d5:
                    de:31:08:fa:d9:9b:86:ac:33:a6:8c:3f:83:d5:6c:
                    ba:bf:85:af:88:fa:a2:0c:00:af:56:36:50:1e:df:
                    cc:fb:3d:4f:73:a6:06:b1:7a:07:7d:66:ea:63:ec:
                    d2:29:0e:29:74:04:2c:0a:28:c7:e3:16:7b:62:4e:
                    8a:4a:d3:9e:af:b7:74:b5:76:26:da:96:b1:c0:6c:
                    3f:29:59:93:1e:91:cb:2a:62:94:6c:09:64:f9:4a:
                    18:a2:a3:fc:96:7c:66:e1:a7:13:26:fb:d1:5d:fa:
                    28:ee:96:86:17:42:33:89:f2:dd:93:a0:e5:f0:7d:
                    1f:19:61:ad:4b:92:b5:d1:9a:ed:6b:9c:e0:8e:24:
                    4d:6d:28:a2:48:48:dd:13:09:a8:09:df:b2:77:10:
                    34:2c:ad:74:01:6b:33:7f:2c:2e:57:b9:3c:d7:a5:
                    60:e1:5f:6d:67:bf:15:51:ce:bb:d2:59:c7:40:b3:
                    e3:4b:c4:96:be:5d:a3:64:96:ed:e1:8b:11:91:c3:
                    c9:52:a6:3c:6c:2d:a2:1c:da:9d:86:51:69:ce:f9:
                    cb:76:3b:5b:95:d5:18:03:04:dd:31:e3:12:25:7a:
                    63:b1
                Exponent: 65537 (0x10001)
        Attributes:
            a0:00
    Signature Algorithm: sha256WithRSAEncryption
         06:8e:18:71:08:8e:e6:08:2e:1f:0c:d4:2e:17:c4:5d:dc:00:
         bd:2d:ea:f6:53:be:05:f3:da:ec:5c:2c:a0:11:a6:b3:45:df:
         fb:3e:15:45:2a:73:85:00:1e:da:68:80:f7:66:63:39:2e:b0:
         3f:b3:31:d9:5a:35:aa:c2:05:aa:b1:de:fe:ef:3d:26:e7:22:
         36:16:12:ee:b9:a3:74:04:d3:2e:9f:5c:4b:bb:32:52:89:41:
         60:e3:81:bf:13:2e:cd:b2:ad:60:06:c9:05:02:07:89:97:bd:
         5d:a3:9c:60:80:cc:21:b7:9f:ea:46:f6:53:57:05:71:30:02:
         07:03:b5:38:67:ae:5c:83:82:be:cf:9a:af:3b:0b:f6:bd:c1:
         1f:f4:a8:5a:f1:6c:55:4d:8b:c4:01:5f:e4:b9:23:76:4f:45:
         6b:b6:a9:70:16:a5:a8:ce:32:7a:ef:e7:16:df:40:b2:18:77:
         4d:b3:53:e3:d3:14:e1:64:f7:08:4b:23:f9:b6:54:df:8a:6a:
         65:b7:d8:5c:f0:c4:22:05:5b:2f:5c:96:9d:79:4e:bf:a7:c0:
         eb:e4:e9:ce:b4:c9:7c:58:7a:ad:0e:56:2f:30:66:e5:e4:4d:
         bf:13:89:e9:8f:d0:7d:5d:66:83:2a:cf:0b:82:bf:ee:07:fd:
         73:35:fd:b0
-----BEGIN CERTIFICATE REQUEST-----
MIIC4DCCAcgCAQAwgZoxCzAJBgNVBAYTAkJSMRAwDgYDVQQIDAdNYXJpbmdhMRUw
EwYDVQQHDAxDYXNhRG9NYXRpYXMxDzANBgNVBAoMBk1hdGlhczEKMAgGA1UECwwB
TTESMBAGA1UEAwwJQWxleGFuZHJlMTEwLwYJKoZIhvcNAQkBFiJtYXRpYXMuaGVy
cmVyb0BhbHVub3MudXRmcHIuZWR1LmJyMIIBIjANBgkqhkiG9w0BAQEFAAOCAQ8A
MIIBCgKCAQEAq2vB5s86CUKBe6Z6Pmg7bki3NgWbtda9rjw/rtXeMQj62ZuGrDOm
jD+D1Wy6v4WviPqiDACvVjZQHt/M+z1Pc6YGsXoHfWbqY+zSKQ4pdAQsCijH4xZ7
Yk6KStOer7d0tXYm2paxwGw/KVmTHpHLKmKUbAlk+UoYoqP8lnxm4acTJvvRXfoo
7paGF0IzifLdk6Dl8H0fGWGtS5K10Zrta5zgjiRNbSiiSEjdEwmoCd+ydxA0LK10
AWszfywuV7k816Vg4V9tZ78VUc670lnHQLPjS8SWvl2jZJbt4YsRkcPJUqY8bC2i
HNqdhlFpzvnLdjtbldUYAwTdMeMSJXpjsQIDAQABoAAwDQYJKoZIhvcNAQELBQAD
ggEBAAaOGHEIjuYILh8M1C4XxF3cAL0t6vZTvgXz2uxcLKARprNF3/s+FUUqc4UA
HtpogPdmYzkusD+zMdlaNarCBaqx3v7vPSbnIjYWEu65o3QE0y6fXEu7MlKJQWDj
gb8TLs2yrWAGyQUCB4mXvV2jnGCAzCG3n+pG9lNXBXEwAgcDtThnrlyDgr7Pmq87
C/a9wR/0qFrxbFVNi8QBX+S5I3ZPRWu2qXAWpajOMnrv5xbfQLIYd02zU+PTFOFk
9whLI/m2VN+KamW32FzwxCIFWy9clp15Tr+nwOvk6c60yXxYeq0OVi8wZuXkTb8T
iemP0H1dZoMqzwuCv+4H/XM1/bA=
-----END CERTIFICATE REQUEST-----
