Certificate:
    Data:
        Version: 3 (0x2)
        Serial Number: 1 (0x1)
        Signature Algorithm: sha256WithRSAEncryption
        Issuer: C=BR, ST=PrisaoDoMatias, L=MarinagayCity, O=CasaDoMatias, OU=M, CN=Deus/emailAddress=matias.herrero@alunos.utfpr.edu.br
        Validity
            Not Before: Jul  1 22:12:57 2021 GMT
            Not After : Jul  1 22:12:57 2022 GMT
        Subject: C=BR, ST=Maringa, L=CasaDoMatias, O=Matias, OU=M, CN=Alexandre/emailAddress=matias.herrero@alunos.utfpr.edu.br
        Subject Public Key Info:
            Public Key Algorithm: rsaEncryption
                RSA Public-Key: (2048 bit)
                Modulus:
                    00:ab:6b:c1:e6:cf:3a:09:42:81:7b:a6:7a:3e:68:
                    3b:6e:48:b7:36:05:9b:b5:d6:bd:ae:3c:3f:ae:d5:
                    de:31:08:fa:d9:9b:86:ac:33:a6:8c:3f:83:d5:6c:
                    ba:bf:85:af:88:fa:a2:0c:00:af:56:36:50:1e:df:
                    cc:fb:3d:4f:73:a6:06:b1:7a:07:7d:66:ea:63:ec:
                    d2:29:0e:29:74:04:2c:0a:28:c7:e3:16:7b:62:4e:
                    8a:4a:d3:9e:af:b7:74:b5:76:26:da:96:b1:c0:6c:
                    3f:29:59:93:1e:91:cb:2a:62:94:6c:09:64:f9:4a:
                    18:a2:a3:fc:96:7c:66:e1:a7:13:26:fb:d1:5d:fa:
                    28:ee:96:86:17:42:33:89:f2:dd:93:a0:e5:f0:7d:
                    1f:19:61:ad:4b:92:b5:d1:9a:ed:6b:9c:e0:8e:24:
                    4d:6d:28:a2:48:48:dd:13:09:a8:09:df:b2:77:10:
                    34:2c:ad:74:01:6b:33:7f:2c:2e:57:b9:3c:d7:a5:
                    60:e1:5f:6d:67:bf:15:51:ce:bb:d2:59:c7:40:b3:
                    e3:4b:c4:96:be:5d:a3:64:96:ed:e1:8b:11:91:c3:
                    c9:52:a6:3c:6c:2d:a2:1c:da:9d:86:51:69:ce:f9:
                    cb:76:3b:5b:95:d5:18:03:04:dd:31:e3:12:25:7a:
                    63:b1
                Exponent: 65537 (0x10001)
        X509v3 extensions:
            X509v3 Basic Constraints: 
                CA:FALSE
            Netscape Comment: 
                OpenSSL Generated Certificate
            X509v3 Subject Key Identifier: 
                16:6B:D8:E3:10:39:50:36:3D:6F:52:F7:3E:BA:2D:DB:13:70:E0:B7
            X509v3 Authority Key Identifier: 
                keyid:2B:05:08:FD:B1:54:FB:DC:42:42:CF:77:E4:7B:0F:85:6C:86:3D:A5

    Signature Algorithm: sha256WithRSAEncryption
         9f:95:5b:e4:30:fa:8f:c3:2a:91:0b:24:bf:37:d4:e6:a0:09:
         02:40:3e:dd:b0:f4:4f:31:3d:d5:25:2d:25:84:88:3f:47:6c:
         eb:c4:6d:27:f7:99:ef:16:de:bb:3e:0f:21:68:84:73:5d:60:
         b4:06:b9:a0:f8:a2:64:7a:d5:98:aa:f9:6a:32:b8:a8:f4:4b:
         dd:51:ff:d9:d4:c4:af:01:97:1e:06:d0:51:88:c8:43:ed:2d:
         8d:ea:a6:0a:62:9f:b8:a1:a5:2d:47:d3:67:ca:c4:ee:d8:db:
         45:19:a7:73:8e:47:7a:7f:1b:60:5d:75:ce:fb:be:32:19:6f:
         01:2a:29:21:b0:81:b9:34:7d:6c:43:55:22:0b:05:e5:d6:87:
         8a:d0:38:6b:e4:e5:36:a0:bd:b7:52:7b:e1:62:1a:8b:18:d2:
         ff:66:5f:d3:4f:d3:b3:cb:0b:10:86:44:32:03:e0:06:e3:46:
         02:50:0f:ac:ef:fc:1e:52:3f:ba:66:50:22:a5:da:f4:6b:90:
         46:0e:b5:4a:8d:02:99:2c:7b:78:5d:09:24:f0:17:4b:c4:7b:
         d6:77:11:ee:ee:2c:e9:ec:18:42:1f:f6:2f:8a:64:a2:b5:22:
         a3:f0:da:cf:ce:f6:01:60:6a:2c:a5:0a:dd:4f:b0:f6:e0:40:
         09:9b:ca:b2
-----BEGIN CERTIFICATE-----
MIIENTCCAx2gAwIBAgIBATANBgkqhkiG9w0BAQsFADCBozELMAkGA1UEBhMCQlIx
FzAVBgNVBAgMDlByaXNhb0RvTWF0aWFzMRYwFAYDVQQHDA1NYXJpbmFnYXlDaXR5
MRUwEwYDVQQKDAxDYXNhRG9NYXRpYXMxCjAIBgNVBAsMAU0xDTALBgNVBAMMBERl
dXMxMTAvBgkqhkiG9w0BCQEWIm1hdGlhcy5oZXJyZXJvQGFsdW5vcy51dGZwci5l
ZHUuYnIwHhcNMjEwNzAxMjIxMjU3WhcNMjIwNzAxMjIxMjU3WjCBmjELMAkGA1UE
BhMCQlIxEDAOBgNVBAgMB01hcmluZ2ExFTATBgNVBAcMDENhc2FEb01hdGlhczEP
MA0GA1UECgwGTWF0aWFzMQowCAYDVQQLDAFNMRIwEAYDVQQDDAlBbGV4YW5kcmUx
MTAvBgkqhkiG9w0BCQEWIm1hdGlhcy5oZXJyZXJvQGFsdW5vcy51dGZwci5lZHUu
YnIwggEiMA0GCSqGSIb3DQEBAQUAA4IBDwAwggEKAoIBAQCra8HmzzoJQoF7pno+
aDtuSLc2BZu11r2uPD+u1d4xCPrZm4asM6aMP4PVbLq/ha+I+qIMAK9WNlAe38z7
PU9zpgaxegd9Zupj7NIpDil0BCwKKMfjFntiTopK056vt3S1dibalrHAbD8pWZMe
kcsqYpRsCWT5Shiio/yWfGbhpxMm+9Fd+ijuloYXQjOJ8t2ToOXwfR8ZYa1LkrXR
mu1rnOCOJE1tKKJISN0TCagJ37J3EDQsrXQBazN/LC5XuTzXpWDhX21nvxVRzrvS
WcdAs+NLxJa+XaNklu3hixGRw8lSpjxsLaIc2p2GUWnO+ct2O1uV1RgDBN0x4xIl
emOxAgMBAAGjezB5MAkGA1UdEwQCMAAwLAYJYIZIAYb4QgENBB8WHU9wZW5TU0wg
R2VuZXJhdGVkIENlcnRpZmljYXRlMB0GA1UdDgQWBBQWa9jjEDlQNj1vUvc+ui3b
E3DgtzAfBgNVHSMEGDAWgBQrBQj9sVT73EJCz3fkew+FbIY9pTANBgkqhkiG9w0B
AQsFAAOCAQEAn5Vb5DD6j8MqkQskvzfU5qAJAkA+3bD0TzE91SUtJYSIP0ds68Rt
J/eZ7xbeuz4PIWiEc11gtAa5oPiiZHrVmKr5ajK4qPRL3VH/2dTErwGXHgbQUYjI
Q+0tjeqmCmKfuKGlLUfTZ8rE7tjbRRmnc45Hen8bYF11zvu+MhlvASopIbCBuTR9
bENVIgsF5daHitA4a+TlNqC9t1J74WIaixjS/2Zf00/Ts8sLEIZEMgPgBuNGAlAP
rO/8HlI/umZQIqXa9GuQRg61So0CmSx7eF0JJPAXS8R71ncR7u4s6ewYQh/2L4pk
orUio/Daz872AWBqLKUK3U+w9uBACZvKsg==
-----END CERTIFICATE-----
